target datalayout = "e-m:e-p270:32:32-p271:32:32-p272:64:64-i64:64-i128:128-f80:128-n8:16:32:64-S128"
target triple = "x86_64-pc-linux-gnu"

%struct.AVOption = type { ptr, ptr, i32, i32, %union.anon, double, double, i32, ptr }
%union.anon = type { i64 }

; Function Attrs: nounwind uwtable
define i32 @av_opt_eval_float(ptr noundef %0, ptr noundef %1, ptr noundef %2, ptr noundef %3) #0 {
  %5 = alloca i32, align 4
  %6 = alloca ptr, align 8
  %7 = alloca ptr, align 8
  %8 = alloca ptr, align 8
  %9 = alloca ptr, align 8
  store ptr %0, ptr %6, align 8, !tbaa !4
  store ptr %1, ptr %7, align 8, !tbaa !8
  store ptr %2, ptr %8, align 8, !tbaa !19
  store ptr %3, ptr %9, align 8, !tbaa !57
  %10 = load ptr, ptr %7, align 8, !tbaa !8
  %11 = icmp ne ptr %10, null
  br i1 %11, label %12, label %23

12:                                               ; preds = %4
  %13 = load ptr, ptr %7, align 8, !tbaa !8
  %14 = getelementptr inbounds nuw %struct.AVOption, ptr %13, i32 0, i32 3
  %15 = load i32, ptr %14, align 4, !tbaa !21
  %16 = icmp ne i32 %15, 5
  br i1 %16, label %23, label %17

17:                                               ; preds = %12
  %18 = load ptr, ptr %7, align 8, !tbaa !8
  %19 = getelementptr inbounds nuw %struct.AVOption, ptr %18, i32 0, i32 7
  %20 = load i32, ptr %19, align 8, !tbaa !26
  %21 = and i32 %20, 128
  %22 = icmp ne i32 %21, 0
  br i1 %22, label %23, label %24

23:                                               ; preds = %17, %12, %4
  store i32 -22, ptr %5, align 4
  br label %31

24:                                               ; preds = %17
  %25 = load ptr, ptr %6, align 8, !tbaa !4
  %26 = load ptr, ptr %6, align 8, !tbaa !4
  %27 = load ptr, ptr %7, align 8, !tbaa !8
  %28 = load ptr, ptr %8, align 8, !tbaa !19
  %29 = load ptr, ptr %9, align 8, !tbaa !57
  %30 = call i32 @set_string_number(ptr noundef %25, ptr noundef %26, ptr noundef %27, ptr noundef %28, ptr noundef %29)
  store i32 %30, ptr %5, align 4
  br label %31

31:                                               ; preds = %24, %23
  %32 = load i32, ptr %5, align 4
  ret i32 %32
}